target datalayout = "e-m:e-p270:32:32-p271:32:32-p272:64:64-i64:64-i128:128-f80:128-n8:16:32:64-S128"
target triple = "x86_64-unknown-linux-gnu"

%"class.sat::literal" = type { i32 }
%"class.sat::cut_simplifier" = type { ptr, %"struct.sat::cut_simplifier::stats", %"struct.sat::cut_simplifier::config", %"class.sat::aig_cuts", i32, %class.svector, ptr, %class.hashtable }
%"struct.sat::cut_simplifier::stats" = type { i32, i32, i32, i32, i32, i32, i32, i32, i32, i32, i32, i32, i32 }
%"struct.sat::cut_simplifier::config" = type { i8, i8, i8, i8, i8, i8, i8 }
%"class.sat::aig_cuts" = type { %class.random_gen, %"struct.sat::aig_cuts::config", %class.vector, %class.svector, %class.region, %"class.sat::cut_set", %"class.sat::cut_set", %"class.sat::cut_set", %class.vector.1, %class.svector.2, %class.svector.2, i32, i32, %class.svector.4, i32, %"class.std::function", %"class.std::function", %"class.std::function.6", %"class.std::function.6", %class.svector, [6 x ptr], [6 x i64], [6 x %"class.sat::literal"] }
%class.random_gen = type { i32 }
%"struct.sat::aig_cuts::config" = type <{ i32, i32, i32, i8, [3 x i8] }>
%class.vector = type { ptr }
%class.region = type { ptr, ptr, ptr, ptr, ptr }
%"class.sat::cut_set" = type { i32, ptr, i32, i32, ptr }
%class.vector.1 = type { ptr }
%class.svector.2 = type { %class.vector.3 }
%class.vector.3 = type { ptr }
%class.svector.4 = type { %class.vector.5 }
%class.vector.5 = type { ptr }
%"class.std::function" = type { %"class.std::_Function_base", ptr }
%"class.std::_Function_base" = type { %"union.std::_Any_data", ptr }
%"union.std::_Any_data" = type { %"union.std::_Nocopy_types" }
%"union.std::_Nocopy_types" = type { { i64, i64 } }
%"class.std::function.6" = type { %"class.std::_Function_base", ptr }
%class.svector = type { %class.vector.0 }
%class.vector.0 = type { ptr }
%class.hashtable = type { %class.core_hashtable.base, [4 x i8] }
%class.core_hashtable.base = type <{ ptr, i32, i32, i32 }>

; Function Attrs: mustprogress uwtable
define hidden void @_ZN3sat14cut_simplifier13validate_unitENS_7literalE(ptr noundef nonnull align 8 dereferenceable(600) %this, i32 %lit.coerce) #5 align 2 {
entry:
  %lit = alloca %"class.sat::literal", align 4
  %this.addr = alloca ptr, align 8
  %coerce.dive = getelementptr inbounds %"class.sat::literal", ptr %lit, i32 0, i32 0
  store i32 %lit.coerce, ptr %coerce.dive, align 4
  store ptr %this, ptr %this.addr, align 8
  %this1 = load ptr, ptr %this.addr, align 8
  %m_config = getelementptr inbounds %"class.sat::cut_simplifier", ptr %this1, i32 0, i32 2
  %m_validate_lemmas = getelementptr inbounds %"struct.sat::cut_simplifier::config", ptr %m_config, i32 0, i32 5
  %0 = load i8, ptr %m_validate_lemmas, align 1
  %tobool = trunc i8 %0 to i1
  br i1 %tobool, label %if.end, label %if.then

if.then:                                          ; preds = %entry
  br label %return

if.end:                                           ; preds = %entry
  call void @_ZN3sat14cut_simplifier16ensure_validatorEv(ptr noundef nonnull align 8 dereferenceable(600) %this1)
  %m_validator = getelementptr inbounds %"class.sat::cut_simplifier", ptr %this1, i32 0, i32 6
  %1 = load ptr, ptr %m_validator, align 8
  call void @_ZN3sat14cut_simplifier9validator8validateEjPKNS_7literalE(ptr noundef nonnull align 8 dereferenceable(24) %1, i32 noundef 1, ptr noundef %lit)
  br label %return

return:                                           ; preds = %if.end, %if.then
  ret void
}