; Function Attrs: mustprogress uwtable
define hidden void @_ZN3sat14cut_simplifier13validate_unitENS_7literalE(ptr nocapture noundef nonnull align 8 dereferenceable(600) %this, i32 %lit.coerce) local_unnamed_addr #3 align 2 {
entry:
  %lit = alloca %"class.sat::literal", align 4
  store i32 %lit.coerce, ptr %lit, align 4
  %m_validate_lemmas = getelementptr inbounds i8, ptr %this, i64 65
  %0 = load i8, ptr %m_validate_lemmas, align 1
  %1 = and i8 %0, 1
  %tobool.not = icmp eq i8 %1, 0
  br i1 %tobool.not, label %return, label %if.end

if.end:                                           ; preds = %entry
  tail call void @_ZN3sat14cut_simplifier16ensure_validatorEv(ptr noundef nonnull align 8 dereferenceable(600) %this)
  %m_validator = getelementptr inbounds i8, ptr %this, i64 568
  %2 = load ptr, ptr %m_validator, align 8
  call void @_ZN3sat14cut_simplifier9validator8validateEjPKNS_7literalE(ptr noundef nonnull align 8 dereferenceable(24) %2, i32 noundef 1, ptr noundef nonnull %lit)
  br label %return

return:                                           ; preds = %entry, %if.end
  ret void
}